(dp0
I0
(lp1
S'0xff00'
p2
aS'0xf0f0'
p3
aS'0xaaaa'
p4
aS'0xcccc'
p5
asI1
(lp6
S'0xaa00'
p7
aS'0xa0a0'
p8
aS'0xf000'
p9
aS'0x8888'
p10
aS'0xcc00'
p11
aS'0xc0c0'
p12
asI2
(lp13
S'0xffaa'
p14
aS'0xfcfc'
p15
aS'0xfff0'
p16
aS'0xeeee'
p17
aS'0xfafa'
p18
aS'0xffcc'
p19
asI3
(lp20
S'0xa000'
p21
aS'0x8800'
p22
aS'0xc000'
p23
aS'0x8080'
p24
asI4
(lp25
S'0xffee'
p26
aS'0xfefe'
p27
aS'0xfffa'
p28
aS'0xfffc'
p29
asI5
(lp30
S'0xfcc0'
p31
aS'0xee88'
p32
aS'0xfaa0'
p33
aS'0xe8e8'
p34
asI6
(lp35
S'0xee00'
p36
aS'0xc8c8'
p37
aS'0xaa88'
p38
aS'0xcc88'
p39
aS'0xfc00'
p40
aS'0xccc0'
p41
aS'0xfa00'
p42
aS'0xe0e0'
p43
aS'0xa8a8'
p44
aS'0xf0c0'
p45
aS'0xaaa0'
p46
aS'0xf0a0'
p47
asI7
(lp48
S'0xfaf0'
p49
aS'0xeecc'
p50
aS'0xff88'
p51
aS'0xfaaa'
p52
aS'0xffc0'
p53
aS'0xecec'
p54
aS'0xffa0'
p55
aS'0xf8f8'
p56
aS'0xeeaa'
p57
aS'0xfccc'
p58
aS'0xeaea'
p59
aS'0xfcf0'
p60
asI8
(lp61
S'0x8000'
p62
asI9
(lp63
S'0xfffe'
p64
asI10
(lp65
S'0xa800'
p66
aS'0x8880'
p67
aS'0xc080'
p68
aS'0xa080'
p69
aS'0xe000'
p70
aS'0xc800'
p71
asI11
(lp72
S'0xffea'
p73
aS'0xfff8'
p74
aS'0xfeee'
p75
aS'0xffec'
p76
aS'0xfefa'
p77
aS'0xfefc'
p78
asI12
(lp79
S'0xe880'
p80
asI13
(lp81
S'0xfee8'
p82
asI14
(lp83
S'0xa880'
p84
aS'0xe800'
p85
aS'0xc880'
p86
aS'0xe080'
p87
asI15
(lp88
S'0xffe8'
p89
aS'0xfeea'
p90
aS'0xfef8'
p91
aS'0xfeec'
p92
asI16
(lp93
S'0xe888'
p94
aS'0xe8c0'
p95
aS'0xe8a0'
p96
aS'0xea80'
p97
aS'0xf880'
p98
aS'0xec80'
p99
asI17
(lp100
S'0xfce8'
p101
aS'0xfea8'
p102
aS'0xfae8'
p103
aS'0xeee8'
p104
aS'0xfec8'
p105
aS'0xfee0'
p106
asI18
(lp107
S'0xe0c0'
p108
aS'0xa8a0'
p109
aS'0xc8c0'
p110
aS'0xc888'
p111
aS'0xa888'
p112
aS'0xf080'
p113
aS'0xec00'
p114
aS'0xea00'
p115
aS'0xaa80'
p116
aS'0xcc80'
p117
aS'0xe0a0'
p118
aS'0xf800'
p119
asI19
(lp120
S'0xffa8'
p121
aS'0xfef0'
p122
aS'0xfcec'
p123
aS'0xfaf8'
p124
aS'0xfeaa'
p125
aS'0xeeea'
p126
aS'0xeeec'
p127
aS'0xffc8'
p128
aS'0xfecc'
p129
aS'0xfaea'
p130
aS'0xffe0'
p131
aS'0xfcf8'
p132
asI20
(lp133
S'0xfc80'
p134
aS'0xe8c8'
p135
aS'0xf8a0'
p136
aS'0xee80'
p137
aS'0xf8c0'
p138
aS'0xe8a8'
p139
aS'0xecc0'
p140
aS'0xec88'
p141
aS'0xfa80'
p142
aS'0xea88'
p143
aS'0xeaa0'
p144
aS'0xe8e0'
p145
asI21
(lp146
S'0xfae0'
p147
aS'0xfcc8'
p148
aS'0xfea0'
p149
aS'0xfe88'
p150
aS'0xfec0'
p151
aS'0xeec8'
p152
aS'0xfaa8'
p153
aS'0xeea8'
p154
aS'0xeae8'
p155
aS'0xf8e8'
p156
aS'0xece8'
p157
aS'0xfce0'
p158
asI22
(lp159
S'0xf8e0'
p160
aS'0xeaa8'
p161
aS'0xecc8'
p162
aS'0xfe80'
p163
asI23
(lp164
S'0xccc8'
p165
aS'0xfe00'
p166
aS'0xaaa8'
p167
aS'0xf0e0'
p168
asI24
(lp169
S'0xeaaa'
p170
aS'0xff80'
p171
aS'0xf8f0'
p172
aS'0xeccc'
p173
as.