(dp0
I0
(lp1
S'0xaa'
p2
aS'0xcc'
p3
aS'0xf0'
p4
asI1
(lp5
S'0xa0'
p6
aS'0x88'
p7
aS'0xc0'
p8
asI2
(lp9
S'0xee'
p10
aS'0xfa'
p11
aS'0xfc'
p12
asI3
(lp13
S'0x80'
p14
asI4
(lp15
S'0xfe'
p16
asI5
(lp17
S'0xe8'
p18
asI6
(lp19
S'0xa8'
p20
aS'0xe0'
p21
aS'0xc8'
p22
asI7
(lp23
S'0xec'
p24
aS'0xea'
p25
aS'0xf8'
p26
as.