(dp0
I0
(lp1
S'0xf'
p2
aS'0x0'
p3
aS'0xa'
p4
aS'0x5'
p5
aS'0xc'
p6
aS'0x3'
p7
asI1
(lp8
S'0xa'
p9
aS'0x5'
p10
aS'0xc'
p11
aS'0x3'
p12
aS'0x8'
p13
aS'0x7'
p14
asI2
(lp15
S'0xf'
p16
aS'0x0'
p17
aS'0xe'
p18
aS'0x1'
p19
as.