(dp0
I0
(lp1
S'0xaa'
p2
aS'0x55'
p3
aS'0xcc'
p4
aS'0x33'
p5
aS'0xf0'
p6
aS'0xf'
p7
asI1
(lp8
S'0xa0'
p9
aS'0x5f'
p10
aS'0x88'
p11
aS'0x77'
p12
aS'0xc0'
p13
aS'0x3f'
p14
asI2
(lp15
S'0xee'
p16
aS'0x11'
p17
aS'0xfa'
p18
aS'0x5'
p19
aS'0xfc'
p20
aS'0x3'
p21
asI3
(lp22
S'0x80'
p23
aS'0x7f'
p24
asI4
(lp25
S'0xfe'
p26
aS'0x1'
p27
asI5
(lp28
S'0xe8'
p29
aS'0x17'
p30
asI6
(lp31
S'0xa8'
p32
aS'0x57'
p33
aS'0xe0'
p34
aS'0x1f'
p35
aS'0xc8'
p36
aS'0x37'
p37
asI7
(lp38
S'0xec'
p39
aS'0x13'
p40
aS'0xea'
p41
aS'0x15'
p42
aS'0xf8'
p43
aS'0x7'
p44
as.