(dp0
I0
(lp1
S'0x0'
p2
aS'0x3'
p3
aS'0x5'
p4
aS'0xf'
p5
aS'0xc'
p6
aS'0xa'
p7
asI1
(lp8
S'0x0'
p9
aS'0x1'
p10
aS'0x3'
p11
aS'0x2'
p12
aS'0x5'
p13
aS'0x4'
p14
aS'0xc'
p15
aS'0xa'
p16
aS'0x8'
p17
asI2
(lp18
S'0x7'
p19
aS'0x3'
p20
aS'0x5'
p21
aS'0xf'
p22
aS'0xe'
p23
aS'0xc'
p24
aS'0xd'
p25
aS'0xa'
p26
aS'0xb'
p27
as.